target datalayout = "e-m:e-p270:32:32-p271:32:32-p272:64:64-i64:64-i128:128-f80:128-n8:16:32:64-S128"
target triple = "x86_64-unknown-linux-gnu"

%"class.hermes::Identifier" = type { ptr }
%"class.llvh::SMLoc" = type { ptr }
%"class.llvh::StringRef" = type { ptr, i64 }
%"class.llvh::SMRange" = type { %"class.llvh::SMLoc", %"class.llvh::SMLoc" }
%"class.hermes::irgen::ESTreeIRGen" = type { ptr, %"class.hermes::IRBuilder", %"class.hermes::IRInstrument", ptr, ptr, ptr, ptr, %"class.hermes::ScopedHashTable", %"class.std::shared_ptr", %"class.hermes::Identifier", %"class.hermes::Identifier", %"class.hermes::Identifier", ptr, ptr, %"class.llvh::DenseMap.0" }
%"class.hermes::IRBuilder" = type { ptr, %"class.llvh::ilist_iterator", ptr, %"class.llvh::SMLoc", ptr }
%"class.llvh::ilist_iterator" = type { ptr }
%"class.hermes::IRInstrument" = type { i8 }
%"class.hermes::ScopedHashTable" = type { %"class.llvh::DenseMap", ptr }
%"class.llvh::DenseMap" = type <{ ptr, i32, i32, i32, [4 x i8] }>
%"class.std::shared_ptr" = type { %"class.std::__shared_ptr" }
%"class.std::__shared_ptr" = type { ptr, %"class.std::__shared_count" }
%"class.std::__shared_count" = type { ptr }
%"class.llvh::DenseMap.0" = type <{ ptr, i32, i32, i32, [4 x i8] }>
%"class.hermes::ESTree::Node" = type { %"class.llvh::ilist_node", i32, i32, %"class.llvh::SMRange", %"class.llvh::SMLoc" }
%"class.llvh::ilist_node" = type { %"class.llvh::ilist_node_impl" }
%"class.llvh::ilist_node_impl" = type { %"class.llvh::ilist_node_base" }
%"class.llvh::ilist_node_base" = type { ptr, ptr }
%"class.hermes::UniqueString" = type { %"class.llvh::StringRef" }
%"class.hermes::irgen::LReference" = type { i32, ptr, i8, %union.anon.238, %"class.llvh::SMLoc" }
%union.anon.238 = type { %struct.anon }
%struct.anon = type { ptr, ptr }
%"class.hermes::ESTree::UpdateExpressionNode" = type <{ %"class.hermes::ESTree::Node", ptr, ptr, i8, [7 x i8] }>

@.str.22 = private unnamed_addr constant [3 x i8] c"++\00", align 1
@.str.23 = private unnamed_addr constant [3 x i8] c"--\00", align 1

; Function Attrs: mustprogress nounwind uwtable
define linkonce_odr hidden noundef nonnull align 8 dereferenceable(16) ptr @_ZNK6hermes12UniqueString3strEv(ptr noundef nonnull align 8 dereferenceable(16) %this) #0 comdat align 2 {
entry:
  %this.addr = alloca ptr, align 8
  store ptr %this, ptr %this.addr, align 8
  %this1 = load ptr, ptr %this.addr, align 8
  %str_ = getelementptr inbounds %"class.hermes::UniqueString", ptr %this1, i32 0, i32 0
  ret ptr %str_
}

; Function Attrs: mustprogress nounwind uwtable
define hidden noundef ptr @_ZN6hermes5irgen11ESTreeIRGen13genUpdateExprEPNS_6ESTree20UpdateExpressionNodeE(ptr noundef nonnull align 8 dereferenceable(200) %this, ptr noundef %updateExpr) #0 align 2 {
entry:
  %retval.i60 = alloca i32, align 4
  %Lhs.addr.i61 = alloca ptr, align 8
  %Rhs.addr.i62 = alloca ptr, align 8
  %Length.addr.i63 = alloca i64, align 8
  %retval.i = alloca i32, align 4
  %Lhs.addr.i = alloca ptr, align 8
  %Rhs.addr.i = alloca ptr, align 8
  %Length.addr.i = alloca i64, align 8
  %RHS.i47 = alloca %"class.llvh::StringRef", align 8
  %this.addr.i48 = alloca ptr, align 8
  %RHS.i42 = alloca %"class.llvh::StringRef", align 8
  %this.addr.i43 = alloca ptr, align 8
  %LHS.i38 = alloca %"class.llvh::StringRef", align 8
  %RHS.i39 = alloca %"class.llvh::StringRef", align 8
  %agg.tmp.i40 = alloca %"class.llvh::StringRef", align 8
  %LHS.i = alloca %"class.llvh::StringRef", align 8
  %RHS.i = alloca %"class.llvh::StringRef", align 8
  %agg.tmp.i = alloca %"class.llvh::StringRef", align 8
  %this.addr.i27 = alloca ptr, align 8
  %Str.addr.i28 = alloca ptr, align 8
  %this.addr.i = alloca ptr, align 8
  %Str.addr.i = alloca ptr, align 8
  %this.addr = alloca ptr, align 8
  %updateExpr.addr = alloca ptr, align 8
  %isPrefix = alloca i8, align 1
  %opKind = alloca i32, align 4
  %agg.tmp = alloca %"class.llvh::StringRef", align 8
  %agg.tmp2 = alloca %"class.llvh::StringRef", align 8
  %agg.tmp4 = alloca %"class.llvh::StringRef", align 8
  %agg.tmp7 = alloca %"class.llvh::StringRef", align 8
  %lref = alloca %"class.hermes::irgen::LReference", align 8
  %original = alloca ptr, align 8
  %result = alloca ptr, align 8
  store ptr %this, ptr %this.addr, align 8
  store ptr %updateExpr, ptr %updateExpr.addr, align 8
  %this1 = load ptr, ptr %this.addr, align 8
  br label %do.body

do.body:                                          ; preds = %entry
  br label %do.end

do.end:                                           ; preds = %do.body
  %0 = load ptr, ptr %updateExpr.addr, align 8
  %_prefix = getelementptr inbounds %"class.hermes::ESTree::UpdateExpressionNode", ptr %0, i32 0, i32 3
  %1 = load i8, ptr %_prefix, align 8
  %tobool = trunc i8 %1 to i1
  %frombool = zext i1 %tobool to i8
  store i8 %frombool, ptr %isPrefix, align 1
  %2 = load ptr, ptr %updateExpr.addr, align 8
  %_operator = getelementptr inbounds %"class.hermes::ESTree::UpdateExpressionNode", ptr %2, i32 0, i32 1
  %3 = load ptr, ptr %_operator, align 8
  %call = call noundef nonnull align 8 dereferenceable(16) ptr @_ZNK6hermes12UniqueString3strEv(ptr noundef nonnull align 8 dereferenceable(16) %3)
  call void @llvm.memcpy.p0.p0.i64(ptr align 8 %agg.tmp, ptr align 8 %call, i64 16, i1 false)
  store ptr %agg.tmp2, ptr %this.addr.i, align 8
  store ptr @.str.22, ptr %Str.addr.i, align 8
  %this1.i = load ptr, ptr %this.addr.i, align 8
  %4 = load ptr, ptr %Str.addr.i, align 8
  store ptr %4, ptr %this1.i, align 8
  %Length.i = getelementptr inbounds %"class.llvh::StringRef", ptr %this1.i, i32 0, i32 1
  %5 = load ptr, ptr %Str.addr.i, align 8
  %tobool.i = icmp ne ptr %5, null
  br i1 %tobool.i, label %cond.true.i, label %cond.false.i

cond.true.i:                                      ; preds = %do.end
  %6 = load ptr, ptr %Str.addr.i, align 8
  %call.i = call i64 @strlen(ptr noundef %6) #11
  br label %_ZN4llvh9StringRefC2EPKc.exit

cond.false.i:                                     ; preds = %do.end
  br label %_ZN4llvh9StringRefC2EPKc.exit

_ZN4llvh9StringRefC2EPKc.exit:                    ; preds = %cond.false.i, %cond.true.i
  %cond.i = phi i64 [ %call.i, %cond.true.i ], [ 0, %cond.false.i ]
  store i64 %cond.i, ptr %Length.i, align 8
  %7 = getelementptr inbounds { ptr, i64 }, ptr %agg.tmp, i32 0, i32 0
  %8 = load ptr, ptr %7, align 8
  %9 = getelementptr inbounds { ptr, i64 }, ptr %agg.tmp, i32 0, i32 1
  %10 = load i64, ptr %9, align 8
  %11 = getelementptr inbounds { ptr, i64 }, ptr %agg.tmp2, i32 0, i32 0
  %12 = load ptr, ptr %11, align 8
  %13 = getelementptr inbounds { ptr, i64 }, ptr %agg.tmp2, i32 0, i32 1
  %14 = load i64, ptr %13, align 8
  store ptr %8, ptr %LHS.i38, align 8
  %15 = getelementptr inbounds { ptr, i64 }, ptr %LHS.i38, i32 0, i32 1
  store i64 %10, ptr %15, align 8
  store ptr %12, ptr %RHS.i39, align 8
  %16 = getelementptr inbounds { ptr, i64 }, ptr %RHS.i39, i32 0, i32 1
  store i64 %14, ptr %16, align 8
  call void @llvm.memcpy.p0.p0.i64(ptr align 8 %agg.tmp.i40, ptr align 8 %RHS.i39, i64 16, i1 false)
  %17 = load ptr, ptr %agg.tmp.i40, align 8
  %18 = getelementptr inbounds { ptr, i64 }, ptr %agg.tmp.i40, i32 0, i32 1
  %19 = load i64, ptr %18, align 8
  store ptr %17, ptr %RHS.i42, align 8
  %20 = getelementptr inbounds { ptr, i64 }, ptr %RHS.i42, i32 0, i32 1
  store i64 %19, ptr %20, align 8
  store ptr %LHS.i38, ptr %this.addr.i43, align 8
  %this1.i44 = load ptr, ptr %this.addr.i43, align 8
  %Length.i45 = getelementptr inbounds %"class.llvh::StringRef", ptr %this1.i44, i32 0, i32 1
  %21 = load i64, ptr %Length.i45, align 8
  %Length2.i = getelementptr inbounds %"class.llvh::StringRef", ptr %RHS.i42, i32 0, i32 1
  %22 = load i64, ptr %Length2.i, align 8
  %cmp.i = icmp eq i64 %21, %22
  br i1 %cmp.i, label %land.rhs.i, label %_ZNK4llvh9StringRef6equalsES0_.exit

land.rhs.i:                                       ; preds = %_ZN4llvh9StringRefC2EPKc.exit
  %23 = load ptr, ptr %this1.i44, align 8
  %24 = load ptr, ptr %RHS.i42, align 8
  %Length4.i = getelementptr inbounds %"class.llvh::StringRef", ptr %RHS.i42, i32 0, i32 1
  %25 = load i64, ptr %Length4.i, align 8
  store ptr %23, ptr %Lhs.addr.i61, align 8
  store ptr %24, ptr %Rhs.addr.i62, align 8
  store i64 %25, ptr %Length.addr.i63, align 8
  %26 = load i64, ptr %Length.addr.i63, align 8
  %cmp.i64 = icmp eq i64 %26, 0
  br i1 %cmp.i64, label %if.then.i67, label %if.end.i65

if.then.i67:                                      ; preds = %land.rhs.i
  store i32 0, ptr %retval.i60, align 4
  br label %_ZN4llvh9StringRef13compareMemoryEPKcS2_m.exit68

if.end.i65:                                       ; preds = %land.rhs.i
  %27 = load ptr, ptr %Lhs.addr.i61, align 8
  %28 = load ptr, ptr %Rhs.addr.i62, align 8
  %29 = load i64, ptr %Length.addr.i63, align 8
  %call.i66 = call i32 @memcmp(ptr noundef %27, ptr noundef %28, i64 noundef %29) #11
  store i32 %call.i66, ptr %retval.i60, align 4
  br label %_ZN4llvh9StringRef13compareMemoryEPKcS2_m.exit68

_ZN4llvh9StringRef13compareMemoryEPKcS2_m.exit68: ; preds = %if.end.i65, %if.then.i67
  %30 = load i32, ptr %retval.i60, align 4
  %cmp5.i = icmp eq i32 %30, 0
  br label %_ZNK4llvh9StringRef6equalsES0_.exit

_ZNK4llvh9StringRef6equalsES0_.exit:              ; preds = %_ZN4llvh9StringRef13compareMemoryEPKcS2_m.exit68, %_ZN4llvh9StringRefC2EPKc.exit
  %31 = phi i1 [ false, %_ZN4llvh9StringRefC2EPKc.exit ], [ %cmp5.i, %_ZN4llvh9StringRef13compareMemoryEPKcS2_m.exit68 ]
  br i1 %31, label %if.then, label %if.else

if.then:                                          ; preds = %_ZNK4llvh9StringRef6equalsES0_.exit
  store i32 7, ptr %opKind, align 4
  br label %if.end11

if.else:                                          ; preds = %_ZNK4llvh9StringRef6equalsES0_.exit
  %32 = load ptr, ptr %updateExpr.addr, align 8
  %_operator5 = getelementptr inbounds %"class.hermes::ESTree::UpdateExpressionNode", ptr %32, i32 0, i32 1
  %33 = load ptr, ptr %_operator5, align 8
  %call6 = call noundef nonnull align 8 dereferenceable(16) ptr @_ZNK6hermes12UniqueString3strEv(ptr noundef nonnull align 8 dereferenceable(16) %33)
  call void @llvm.memcpy.p0.p0.i64(ptr align 8 %agg.tmp4, ptr align 8 %call6, i64 16, i1 false)
  store ptr %agg.tmp7, ptr %this.addr.i27, align 8
  store ptr @.str.23, ptr %Str.addr.i28, align 8
  %this1.i29 = load ptr, ptr %this.addr.i27, align 8
  %34 = load ptr, ptr %Str.addr.i28, align 8
  store ptr %34, ptr %this1.i29, align 8
  %Length.i30 = getelementptr inbounds %"class.llvh::StringRef", ptr %this1.i29, i32 0, i32 1
  %35 = load ptr, ptr %Str.addr.i28, align 8
  %tobool.i31 = icmp ne ptr %35, null
  br i1 %tobool.i31, label %cond.true.i34, label %cond.false.i32

cond.true.i34:                                    ; preds = %if.else
  %36 = load ptr, ptr %Str.addr.i28, align 8
  %call.i35 = call i64 @strlen(ptr noundef %36) #11
  br label %_ZN4llvh9StringRefC2EPKc.exit36

cond.false.i32:                                   ; preds = %if.else
  br label %_ZN4llvh9StringRefC2EPKc.exit36

_ZN4llvh9StringRefC2EPKc.exit36:                  ; preds = %cond.false.i32, %cond.true.i34
  %cond.i33 = phi i64 [ %call.i35, %cond.true.i34 ], [ 0, %cond.false.i32 ]
  store i64 %cond.i33, ptr %Length.i30, align 8
  %37 = getelementptr inbounds { ptr, i64 }, ptr %agg.tmp4, i32 0, i32 0
  %38 = load ptr, ptr %37, align 8
  %39 = getelementptr inbounds { ptr, i64 }, ptr %agg.tmp4, i32 0, i32 1
  %40 = load i64, ptr %39, align 8
  %41 = getelementptr inbounds { ptr, i64 }, ptr %agg.tmp7, i32 0, i32 0
  %42 = load ptr, ptr %41, align 8
  %43 = getelementptr inbounds { ptr, i64 }, ptr %agg.tmp7, i32 0, i32 1
  %44 = load i64, ptr %43, align 8
  store ptr %38, ptr %LHS.i, align 8
  %45 = getelementptr inbounds { ptr, i64 }, ptr %LHS.i, i32 0, i32 1
  store i64 %40, ptr %45, align 8
  store ptr %42, ptr %RHS.i, align 8
  %46 = getelementptr inbounds { ptr, i64 }, ptr %RHS.i, i32 0, i32 1
  store i64 %44, ptr %46, align 8
  call void @llvm.memcpy.p0.p0.i64(ptr align 8 %agg.tmp.i, ptr align 8 %RHS.i, i64 16, i1 false)
  %47 = load ptr, ptr %agg.tmp.i, align 8
  %48 = getelementptr inbounds { ptr, i64 }, ptr %agg.tmp.i, i32 0, i32 1
  %49 = load i64, ptr %48, align 8
  store ptr %47, ptr %RHS.i47, align 8
  %50 = getelementptr inbounds { ptr, i64 }, ptr %RHS.i47, i32 0, i32 1
  store i64 %49, ptr %50, align 8
  store ptr %LHS.i, ptr %this.addr.i48, align 8
  %this1.i49 = load ptr, ptr %this.addr.i48, align 8
  %Length.i50 = getelementptr inbounds %"class.llvh::StringRef", ptr %this1.i49, i32 0, i32 1
  %51 = load i64, ptr %Length.i50, align 8
  %Length2.i51 = getelementptr inbounds %"class.llvh::StringRef", ptr %RHS.i47, i32 0, i32 1
  %52 = load i64, ptr %Length2.i51, align 8
  %cmp.i52 = icmp eq i64 %51, %52
  br i1 %cmp.i52, label %land.rhs.i53, label %_ZNK4llvh9StringRef6equalsES0_.exit57

land.rhs.i53:                                     ; preds = %_ZN4llvh9StringRefC2EPKc.exit36
  %53 = load ptr, ptr %this1.i49, align 8
  %54 = load ptr, ptr %RHS.i47, align 8
  %Length4.i54 = getelementptr inbounds %"class.llvh::StringRef", ptr %RHS.i47, i32 0, i32 1
  %55 = load i64, ptr %Length4.i54, align 8
  store ptr %53, ptr %Lhs.addr.i, align 8
  store ptr %54, ptr %Rhs.addr.i, align 8
  store i64 %55, ptr %Length.addr.i, align 8
  %56 = load i64, ptr %Length.addr.i, align 8
  %cmp.i58 = icmp eq i64 %56, 0
  br i1 %cmp.i58, label %if.then.i, label %if.end.i

if.then.i:                                        ; preds = %land.rhs.i53
  store i32 0, ptr %retval.i, align 4
  br label %_ZN4llvh9StringRef13compareMemoryEPKcS2_m.exit

if.end.i:                                         ; preds = %land.rhs.i53
  %57 = load ptr, ptr %Lhs.addr.i, align 8
  %58 = load ptr, ptr %Rhs.addr.i, align 8
  %59 = load i64, ptr %Length.addr.i, align 8
  %call.i59 = call i32 @memcmp(ptr noundef %57, ptr noundef %58, i64 noundef %59) #11
  store i32 %call.i59, ptr %retval.i, align 4
  br label %_ZN4llvh9StringRef13compareMemoryEPKcS2_m.exit

_ZN4llvh9StringRef13compareMemoryEPKcS2_m.exit:   ; preds = %if.end.i, %if.then.i
  %60 = load i32, ptr %retval.i, align 4
  %cmp5.i56 = icmp eq i32 %60, 0
  br label %_ZNK4llvh9StringRef6equalsES0_.exit57

_ZNK4llvh9StringRef6equalsES0_.exit57:            ; preds = %_ZN4llvh9StringRef13compareMemoryEPKcS2_m.exit, %_ZN4llvh9StringRefC2EPKc.exit36
  %61 = phi i1 [ false, %_ZN4llvh9StringRefC2EPKc.exit36 ], [ %cmp5.i56, %_ZN4llvh9StringRef13compareMemoryEPKcS2_m.exit ]
  br i1 %61, label %if.then9, label %if.else10

if.then9:                                         ; preds = %_ZNK4llvh9StringRef6equalsES0_.exit57
  store i32 8, ptr %opKind, align 4
  br label %if.end

if.else10:                                        ; preds = %_ZNK4llvh9StringRef6equalsES0_.exit57
  unreachable

if.end:                                           ; preds = %if.then9
  br label %if.end11

if.end11:                                         ; preds = %if.end, %if.then
  %62 = load ptr, ptr %updateExpr.addr, align 8
  %_argument = getelementptr inbounds %"class.hermes::ESTree::UpdateExpressionNode", ptr %62, i32 0, i32 2
  %63 = load ptr, ptr %_argument, align 8
  call void @_ZN6hermes5irgen11ESTreeIRGen10createLRefEPNS_6ESTree4NodeEb(ptr sret(%"class.hermes::irgen::LReference") align 8 %lref, ptr noundef nonnull align 8 dereferenceable(200) %this1, ptr noundef %63, i1 noundef zeroext false)
  %64 = load i8, ptr %isPrefix, align 1
  %tobool12 = trunc i8 %64 to i1
  br i1 %tobool12, label %cond.true, label %cond.false

cond.true:                                        ; preds = %if.end11
  %call13 = call noundef ptr @_ZN6hermes5irgen10LReference8emitLoadEv(ptr noundef nonnull align 8 dereferenceable(48) %lref)
  br label %cond.end

cond.false:                                       ; preds = %if.end11
  %Builder = getelementptr inbounds %"class.hermes::irgen::ESTreeIRGen", ptr %this1, i32 0, i32 1
  %call14 = call noundef ptr @_ZN6hermes5irgen10LReference8emitLoadEv(ptr noundef nonnull align 8 dereferenceable(48) %lref)
  %call15 = call noundef ptr @_ZN6hermes9IRBuilder19createAsNumericInstEPNS_5ValueE(ptr noundef nonnull align 8 dereferenceable(40) %Builder, ptr noundef %call14)
  %65 = icmp eq ptr %call15, null
  br i1 %65, label %cast.end, label %cast.notnull

cast.notnull:                                     ; preds = %cond.false
  %add.ptr = getelementptr inbounds i8, ptr %call15, i64 16
  br label %cast.end

cast.end:                                         ; preds = %cast.notnull, %cond.false
  %cast.result = phi ptr [ %add.ptr, %cast.notnull ], [ null, %cond.false ]
  br label %cond.end

cond.end:                                         ; preds = %cast.end, %cond.true
  %cond = phi ptr [ %call13, %cond.true ], [ %cast.result, %cast.end ]
  store ptr %cond, ptr %original, align 8
  %Builder16 = getelementptr inbounds %"class.hermes::irgen::ESTreeIRGen", ptr %this1, i32 0, i32 1
  %66 = load ptr, ptr %original, align 8
  %67 = load i32, ptr %opKind, align 4
  %call17 = call noundef ptr @_ZN6hermes9IRBuilder23createUnaryOperatorInstEPNS_5ValueENS_17UnaryOperatorInst6OpKindE(ptr noundef nonnull align 8 dereferenceable(40) %Builder16, ptr noundef %66, i32 noundef %67)
  %68 = icmp eq ptr %call17, null
  br i1 %68, label %cast.end20, label %cast.notnull18

cast.notnull18:                                   ; preds = %cond.end
  %add.ptr19 = getelementptr inbounds i8, ptr %call17, i64 16
  br label %cast.end20

cast.end20:                                       ; preds = %cast.notnull18, %cond.end
  %cast.result21 = phi ptr [ %add.ptr19, %cast.notnull18 ], [ null, %cond.end ]
  store ptr %cast.result21, ptr %result, align 8
  %69 = load ptr, ptr %result, align 8
  call void @_ZN6hermes5irgen10LReference9emitStoreEPNS_5ValueE(ptr noundef nonnull align 8 dereferenceable(48) %lref, ptr noundef %69)
  %70 = load i8, ptr %isPrefix, align 1
  %tobool22 = trunc i8 %70 to i1
  br i1 %tobool22, label %cond.true23, label %cond.false24

cond.true23:                                      ; preds = %cast.end20
  %71 = load ptr, ptr %result, align 8
  br label %cond.end25

cond.false24:                                     ; preds = %cast.end20
  %72 = load ptr, ptr %original, align 8
  br label %cond.end25

cond.end25:                                       ; preds = %cond.false24, %cond.true23
  %cond26 = phi ptr [ %71, %cond.true23 ], [ %72, %cond.false24 ]
  ret ptr %cond26
}