; Function Attrs: mustprogress nounwind uwtable
define hidden noundef ptr @_ZN6hermes5irgen11ESTreeIRGen13genUpdateExprEPNS_6ESTree20UpdateExpressionNodeE(ptr noundef nonnull align 8 dereferenceable(200) %this, ptr nocapture noundef readonly %updateExpr) local_unnamed_addr #0 align 2 {
entry:
  %lref = alloca %"class.hermes::irgen::LReference", align 8
  %_prefix = getelementptr inbounds i8, ptr %updateExpr, i64 64
  %0 = load i8, ptr %_prefix, align 8
  %1 = and i8 %0, 1
  %tobool.not = icmp eq i8 %1, 0
  %_operator = getelementptr inbounds i8, ptr %updateExpr, i64 48
  %2 = load ptr, ptr %_operator, align 8
  %agg.tmp.sroa.0.0.copyload = load ptr, ptr %2, align 8
  %agg.tmp.sroa.2.0.call.sroa_idx = getelementptr inbounds i8, ptr %2, i64 8
  %agg.tmp.sroa.2.0.copyload = load i64, ptr %agg.tmp.sroa.2.0.call.sroa_idx, align 8
  %cmp.i = icmp eq i64 %agg.tmp.sroa.2.0.copyload, 2
  br i1 %cmp.i, label %if.end.i65, label %if.else

if.end.i65:                                       ; preds = %entry
  %bcmp = tail call i32 @bcmp(ptr noundef nonnull dereferenceable(2) %agg.tmp.sroa.0.0.copyload, ptr noundef nonnull dereferenceable(2) @.str.22, i64 2)
  %3 = icmp eq i32 %bcmp, 0
  br i1 %3, label %if.end11, label %if.else

if.else:                                          ; preds = %entry, %if.end.i65
  tail call void @llvm.assume(i1 %cmp.i)
  %bcmp16 = tail call i32 @bcmp(ptr noundef nonnull dereferenceable(2) %agg.tmp.sroa.0.0.copyload, ptr noundef nonnull dereferenceable(2) @.str.23, i64 2)
  %4 = icmp eq i32 %bcmp16, 0
  tail call void @llvm.assume(i1 %4)
  br label %if.end11

if.end11:                                         ; preds = %if.end.i65, %if.else
  %opKind.0 = phi i32 [ 8, %if.else ], [ 7, %if.end.i65 ]
  %_argument = getelementptr inbounds i8, ptr %updateExpr, i64 56
  %5 = load ptr, ptr %_argument, align 8
  call void @_ZN6hermes5irgen11ESTreeIRGen10createLRefEPNS_6ESTree4NodeEb(ptr nonnull sret(%"class.hermes::irgen::LReference") align 8 %lref, ptr noundef nonnull align 8 dereferenceable(200) %this, ptr noundef %5, i1 noundef zeroext false) #16
  br i1 %tobool.not, label %cond.false, label %cond.true

cond.true:                                        ; preds = %if.end11
  %call13 = call noundef ptr @_ZN6hermes5irgen10LReference8emitLoadEv(ptr noundef nonnull align 8 dereferenceable(48) %lref) #16
  br label %cond.end

cond.false:                                       ; preds = %if.end11
  %Builder = getelementptr inbounds i8, ptr %this, i64 8
  %call14 = call noundef ptr @_ZN6hermes5irgen10LReference8emitLoadEv(ptr noundef nonnull align 8 dereferenceable(48) %lref) #16
  %call15 = call noundef ptr @_ZN6hermes9IRBuilder19createAsNumericInstEPNS_5ValueE(ptr noundef nonnull align 8 dereferenceable(40) %Builder, ptr noundef %call14) #16
  %6 = icmp eq ptr %call15, null
  %add.ptr = getelementptr inbounds i8, ptr %call15, i64 16
  %spec.select = select i1 %6, ptr null, ptr %add.ptr
  br label %cond.end

cond.end:                                         ; preds = %cond.false, %cond.true
  %cond = phi ptr [ %call13, %cond.true ], [ %spec.select, %cond.false ]
  %Builder16 = getelementptr inbounds i8, ptr %this, i64 8
  %call17 = call noundef ptr @_ZN6hermes9IRBuilder23createUnaryOperatorInstEPNS_5ValueENS_17UnaryOperatorInst6OpKindE(ptr noundef nonnull align 8 dereferenceable(40) %Builder16, ptr noundef %cond, i32 noundef %opKind.0) #16
  %7 = icmp eq ptr %call17, null
  %add.ptr19 = getelementptr inbounds i8, ptr %call17, i64 16
  %spec.select1 = select i1 %7, ptr null, ptr %add.ptr19
  call void @_ZN6hermes5irgen10LReference9emitStoreEPNS_5ValueE(ptr noundef nonnull align 8 dereferenceable(48) %lref, ptr noundef %spec.select1) #16
  %cond26 = select i1 %tobool.not, ptr %cond, ptr %spec.select1
  ret ptr %cond26
}